target datalayout = "e-m:e-p270:32:32-p271:32:32-p272:64:64-i64:64-i128:128-f80:128-n8:16:32:64-S128"
target triple = "x86_64-pc-linux-gnu"

%struct.ImVec4 = type { float, float, float, float }
%struct.ImVector = type { i32, i32, ptr }
%struct.ImDrawList = type { %struct.ImVector.0, %struct.ImVector.1, %struct.ImVector.2, i32, i32, ptr, ptr, ptr, %struct.ImVector, %struct.ImDrawCmdHeader, %struct.ImDrawListSplitter, %struct.ImVector.4, %struct.ImVector.5, %struct.ImVector.6, float, ptr }
%struct.ImVector.0 = type { i32, i32, ptr }
%struct.ImVector.1 = type { i32, i32, ptr }
%struct.ImVector.2 = type { i32, i32, ptr }
%struct.ImDrawCmdHeader = type <{ %struct.ImVec4, i64, i32, [4 x i8] }>
%struct.ImDrawListSplitter = type { i32, i32, %struct.ImVector.3 }
%struct.ImVector.3 = type { i32, i32, ptr }
%struct.ImVector.4 = type { i32, i32, ptr }
%struct.ImVector.5 = type { i32, i32, ptr }
%struct.ImVector.6 = type { i32, i32, ptr }

; Function Attrs: inlinehint mustprogress uwtable
define linkonce_odr void @_ZN10ImDrawList10PathStrokeEjif(ptr noundef nonnull align 8 dereferenceable(216) %0, i32 noundef %1, i32 noundef %2, float noundef %3) #5 comdat align 2 {
  %5 = alloca ptr, align 8
  %6 = alloca i32, align 4
  %7 = alloca i32, align 4
  %8 = alloca float, align 4
  store ptr %0, ptr %5, align 8, !tbaa !43
  store i32 %1, ptr %6, align 4, !tbaa !27
  store i32 %2, ptr %7, align 4, !tbaa !27
  store float %3, ptr %8, align 4, !tbaa !11
  %9 = load ptr, ptr %5, align 8
  %10 = getelementptr inbounds nuw %struct.ImDrawList, ptr %9, i32 0, i32 8
  %11 = getelementptr inbounds nuw %struct.ImVector, ptr %10, i32 0, i32 2
  %12 = load ptr, ptr %11, align 8, !tbaa !177
  %13 = getelementptr inbounds nuw %struct.ImDrawList, ptr %9, i32 0, i32 8
  %14 = getelementptr inbounds nuw %struct.ImVector, ptr %13, i32 0, i32 0
  %15 = load i32, ptr %14, align 8, !tbaa !176
  %16 = load i32, ptr %6, align 4, !tbaa !27
  %17 = load i32, ptr %7, align 4, !tbaa !27
  %18 = load float, ptr %8, align 4, !tbaa !11
  call void @_ZN10ImDrawList11AddPolylineEPK6ImVec2ijif(ptr noundef nonnull align 8 dereferenceable(216) %9, ptr noundef %12, i32 noundef %15, i32 noundef %16, i32 noundef %17, float noundef %18)
  %19 = getelementptr inbounds nuw %struct.ImDrawList, ptr %9, i32 0, i32 8
  %20 = getelementptr inbounds nuw %struct.ImVector, ptr %19, i32 0, i32 0
  store i32 0, ptr %20, align 8, !tbaa !176
  ret void
}

; Function Attrs: mustprogress uwtable
define void @_ZN10ImDrawList7AddNgonERK6ImVec2fjif(ptr noundef nonnull align 8 dereferenceable(216) %0, ptr noundef nonnull align 4 dereferenceable(8) %1, float noundef %2, i32 noundef %3, i32 noundef %4, float noundef %5) #6 align 2 {
  %7 = alloca ptr, align 8
  %8 = alloca ptr, align 8
  %9 = alloca float, align 4
  %10 = alloca i32, align 4
  %11 = alloca i32, align 4
  %12 = alloca float, align 4
  %13 = alloca float, align 4
  store ptr %0, ptr %7, align 8, !tbaa !43
  store ptr %1, ptr %8, align 8, !tbaa !33
  store float %2, ptr %9, align 4, !tbaa !11
  store i32 %3, ptr %10, align 4, !tbaa !27
  store i32 %4, ptr %11, align 4, !tbaa !27
  store float %5, ptr %12, align 4, !tbaa !11
  %14 = load ptr, ptr %7, align 8
  %15 = load i32, ptr %10, align 4, !tbaa !27
  %16 = and i32 %15, -16777216
  %17 = icmp eq i32 %16, 0
  br i1 %17, label %21, label %18

18:                                               ; preds = %6
  %19 = load i32, ptr %11, align 4, !tbaa !27
  %20 = icmp sle i32 %19, 2
  br i1 %20, label %21, label %22

21:                                               ; preds = %18, %6
  br label %38

22:                                               ; preds = %18
  call void @llvm.lifetime.start.p0(i64 4, ptr %13) #17
  %23 = load i32, ptr %11, align 4, !tbaa !27
  %24 = sitofp i32 %23 to float
  %25 = fsub float %24, 1.000000e+00
  %26 = fmul float 0x401921FB60000000, %25
  %27 = load i32, ptr %11, align 4, !tbaa !27
  %28 = sitofp i32 %27 to float
  %29 = fdiv float %26, %28
  store float %29, ptr %13, align 4, !tbaa !11
  %30 = load ptr, ptr %8, align 8, !tbaa !33
  %31 = load float, ptr %9, align 4, !tbaa !11
  %32 = fsub float %31, 5.000000e-01
  %33 = load float, ptr %13, align 4, !tbaa !11
  %34 = load i32, ptr %11, align 4, !tbaa !27
  %35 = sub nsw i32 %34, 1
  call void @_ZN10ImDrawList9PathArcToERK6ImVec2fffi(ptr noundef nonnull align 8 dereferenceable(216) %14, ptr noundef nonnull align 4 dereferenceable(8) %30, float noundef %32, float noundef 0.000000e+00, float noundef %33, i32 noundef %35)
  %36 = load i32, ptr %10, align 4, !tbaa !27
  %37 = load float, ptr %12, align 4, !tbaa !11
  call void @_ZN10ImDrawList10PathStrokeEjif(ptr noundef nonnull align 8 dereferenceable(216) %14, i32 noundef %36, i32 noundef 1, float noundef %37)
  call void @llvm.lifetime.end.p0(i64 4, ptr %13) #17
  br label %38

38:                                               ; preds = %22, %21
  ret void
}