; Function Attrs: mustprogress uwtable
define void @_ZN10ImDrawList7AddNgonERK6ImVec2fjif(ptr noundef nonnull align 8 captures(none) dereferenceable(216) %0, ptr noundef nonnull readonly align 4 captures(none) dereferenceable(8) %1, float noundef %2, i32 noundef %3, i32 noundef %4, float noundef %5) local_unnamed_addr #12 align 2 {
  %7 = icmp ult i32 %3, 16777216
  %8 = icmp slt i32 %4, 3
  %or.cond = or i1 %7, %8
  br i1 %or.cond, label %20, label %9

9:                                                ; preds = %6
  %10 = uitofp nneg i32 %4 to float
  %11 = fadd float %10, -1.000000e+00
  %12 = fmul float %11, 0x401921FB60000000
  %13 = fdiv float %12, %10
  %14 = fadd float %2, -5.000000e-01
  %15 = add nsw i32 %4, -1
  tail call void @_ZN10ImDrawList9PathArcToERK6ImVec2fffi(ptr noundef nonnull align 8 dereferenceable(216) %0, ptr noundef nonnull align 4 dereferenceable(8) %1, float noundef %14, float noundef 0.000000e+00, float noundef %13, i32 noundef %15)
  %16 = getelementptr inbounds nuw i8, ptr %0, i64 80
  %17 = getelementptr inbounds nuw i8, ptr %0, i64 88
  %18 = load ptr, ptr %17, align 8, !tbaa !135
  %19 = load i32, ptr %16, align 8, !tbaa !134
  tail call void @_ZN10ImDrawList11AddPolylineEPK6ImVec2ijif(ptr noundef nonnull align 8 dereferenceable(216) %0, ptr noundef %18, i32 noundef %19, i32 noundef %3, i32 noundef 1, float noundef %5)
  store i32 0, ptr %16, align 8, !tbaa !134
  br label %20

20:                                               ; preds = %6, %9
  ret void
}